; ModuleID = '51/241.c'
source_filename = "51/241.c"
target datalayout = "e-m:e-p270:32:32-p271:32:32-p272:64:64-i64:64-f80:128-n8:16:32:64-S128"
target triple = "x86_64-pc-linux-gnu"

@.str = private unnamed_addr constant [4 x i8] c"%d \00", align 1
@.str.1 = private unnamed_addr constant [4 x i8] c"%d\0A\00", align 1
@.str.2 = private unnamed_addr constant [3 x i8] c"%c\00", align 1
@.str.3 = private unnamed_addr constant [2 x i8] c"\0A\00", align 1
@.str.4 = private unnamed_addr constant [4 x i8] c"NO\0A\00", align 1

; Function Attrs: noinline nounwind uwtable
define dso_local i32 @main() #0 {
  %1 = alloca i32, align 4
  %2 = alloca [501 x i8], align 16
  %3 = alloca [500 x [5 x i8]], align 16
  %4 = alloca [5 x i8], align 1
  %5 = alloca i32, align 4
  %6 = alloca i32, align 4
  %7 = alloca i32, align 4
  %8 = alloca i32, align 4
  %9 = alloca i32, align 4
  %10 = alloca i32, align 4
  %11 = alloca i32, align 4
  %12 = alloca i32, align 4
  %13 = alloca i32, align 4
  %14 = alloca i32, align 4
  %15 = alloca i32, align 4
  %16 = alloca i32, align 4
  %17 = alloca [500 x i32], align 16
  store i32 0, i32* %1, align 4
  %18 = bitcast [5 x i8]* %4 to i8*
  call void @llvm.memset.p0i8.i64(i8* align 1 %18, i8 0, i64 5, i1 false)
  store i32 -1, i32* %7, align 4
  %19 = bitcast [500 x i32]* %17 to i8*
  call void @llvm.memset.p0i8.i64(i8* align 16 %19, i8 0, i64 2000, i1 false)
  %20 = call i32 (i8*, ...) @__isoc99_scanf(i8* getelementptr inbounds ([4 x i8], [4 x i8]* @.str, i64 0, i64 0), i32* %10)
  %21 = getelementptr inbounds [501 x i8], [501 x i8]* %2, i64 0, i64 0
  %22 = call i32 (i8*, ...) bitcast (i32 (...)* @gets to i32 (i8*, ...)*)(i8* %21)
  %23 = getelementptr inbounds [501 x i8], [501 x i8]* %2, i64 0, i64 0
  %24 = call i64 @strlen(i8* %23) #5
  %25 = trunc i64 %24 to i32
  store i32 %25, i32* %11, align 4
  store i32 0, i32* %5, align 4
  br label %26

26:                                               ; preds = %94, %0
  %27 = load i32, i32* %5, align 4
  %28 = load i32, i32* %11, align 4
  %29 = load i32, i32* %10, align 4
  %30 = sub nsw i32 %28, %29
  %31 = add nsw i32 %30, 1
  %32 = icmp slt i32 %27, %31
  br i1 %32, label %33, label %97

33:                                               ; preds = %26
  store i32 0, i32* %8, align 4
  store i32 0, i32* %6, align 4
  br label %34

34:                                               ; preds = %48, %33
  %35 = load i32, i32* %6, align 4
  %36 = load i32, i32* %10, align 4
  %37 = icmp slt i32 %35, %36
  br i1 %37, label %38, label %51

38:                                               ; preds = %34
  %39 = load i32, i32* %5, align 4
  %40 = load i32, i32* %6, align 4
  %41 = add nsw i32 %39, %40
  %42 = sext i32 %41 to i64
  %43 = getelementptr inbounds [501 x i8], [501 x i8]* %2, i64 0, i64 %42
  %44 = load i8, i8* %43, align 1
  %45 = load i32, i32* %6, align 4
  %46 = sext i32 %45 to i64
  %47 = getelementptr inbounds [5 x i8], [5 x i8]* %4, i64 0, i64 %46
  store i8 %44, i8* %47, align 1
  br label %48

48:                                               ; preds = %38
  %49 = load i32, i32* %6, align 4
  %50 = add nsw i32 %49, 1
  store i32 %50, i32* %6, align 4
  br label %34

51:                                               ; preds = %34
  store i32 0, i32* %9, align 4
  br label %52

52:                                               ; preds = %73, %51
  %53 = load i32, i32* %9, align 4
  %54 = load i32, i32* %7, align 4
  %55 = icmp sle i32 %53, %54
  br i1 %55, label %56, label %76

56:                                               ; preds = %52
  %57 = getelementptr inbounds [5 x i8], [5 x i8]* %4, i64 0, i64 0
  %58 = load i32, i32* %9, align 4
  %59 = sext i32 %58 to i64
  %60 = getelementptr inbounds [500 x [5 x i8]], [500 x [5 x i8]]* %3, i64 0, i64 %59
  %61 = getelementptr inbounds [5 x i8], [5 x i8]* %60, i64 0, i64 0
  %62 = call i32 @strcmp(i8* %57, i8* %61) #5
  %63 = icmp eq i32 %62, 0
  br i1 %63, label %64, label %72

64:                                               ; preds = %56
  %65 = load i32, i32* %9, align 4
  %66 = sext i32 %65 to i64
  %67 = getelementptr inbounds [500 x i32], [500 x i32]* %17, i64 0, i64 %66
  %68 = load i32, i32* %67, align 4
  %69 = add nsw i32 %68, 1
  store i32 %69, i32* %67, align 4
  %70 = load i32, i32* %8, align 4
  %71 = add nsw i32 %70, 1
  store i32 %71, i32* %8, align 4
  br label %76

72:                                               ; preds = %56
  br label %73

73:                                               ; preds = %72
  %74 = load i32, i32* %9, align 4
  %75 = add nsw i32 %74, 1
  store i32 %75, i32* %9, align 4
  br label %52

76:                                               ; preds = %64, %52
  %77 = load i32, i32* %8, align 4
  %78 = icmp eq i32 %77, 0
  br i1 %78, label %79, label %93

79:                                               ; preds = %76
  %80 = load i32, i32* %7, align 4
  %81 = add nsw i32 %80, 1
  store i32 %81, i32* %7, align 4
  %82 = load i32, i32* %7, align 4
  %83 = sext i32 %82 to i64
  %84 = getelementptr inbounds [500 x [5 x i8]], [500 x [5 x i8]]* %3, i64 0, i64 %83
  %85 = getelementptr inbounds [5 x i8], [5 x i8]* %84, i64 0, i64 0
  %86 = getelementptr inbounds [5 x i8], [5 x i8]* %4, i64 0, i64 0
  %87 = call i8* @strcpy(i8* %85, i8* %86) #6
  %88 = load i32, i32* %7, align 4
  %89 = sext i32 %88 to i64
  %90 = getelementptr inbounds [500 x i32], [500 x i32]* %17, i64 0, i64 %89
  %91 = load i32, i32* %90, align 4
  %92 = add nsw i32 %91, 1
  store i32 %92, i32* %90, align 4
  br label %93

93:                                               ; preds = %79, %76
  br label %94

94:                                               ; preds = %93
  %95 = load i32, i32* %5, align 4
  %96 = add nsw i32 %95, 1
  store i32 %96, i32* %5, align 4
  br label %26

97:                                               ; preds = %26
  store i32 0, i32* %13, align 4
  br label %98

98:                                               ; preds = %166, %97
  %99 = load i32, i32* %13, align 4
  %100 = load i32, i32* %7, align 4
  %101 = icmp slt i32 %99, %100
  br i1 %101, label %102, label %169

102:                                              ; preds = %98
  store i32 0, i32* %12, align 4
  br label %103

103:                                              ; preds = %162, %102
  %104 = load i32, i32* %12, align 4
  %105 = load i32, i32* %7, align 4
  %106 = load i32, i32* %13, align 4
  %107 = sub nsw i32 %105, %106
  %108 = icmp slt i32 %104, %107
  br i1 %108, label %109, label %165

109:                                              ; preds = %103
  %110 = load i32, i32* %12, align 4
  %111 = sext i32 %110 to i64
  %112 = getelementptr inbounds [500 x i32], [500 x i32]* %17, i64 0, i64 %111
  %113 = load i32, i32* %112, align 4
  %114 = load i32, i32* %12, align 4
  %115 = add nsw i32 %114, 1
  %116 = sext i32 %115 to i64
  %117 = getelementptr inbounds [500 x i32], [500 x i32]* %17, i64 0, i64 %116
  %118 = load i32, i32* %117, align 4
  %119 = icmp sgt i32 %113, %118
  br i1 %119, label %120, label %161

120:                                              ; preds = %109
  %121 = getelementptr inbounds [5 x i8], [5 x i8]* %4, i64 0, i64 0
  %122 = load i32, i32* %12, align 4
  %123 = sext i32 %122 to i64
  %124 = getelementptr inbounds [500 x [5 x i8]], [500 x [5 x i8]]* %3, i64 0, i64 %123
  %125 = getelementptr inbounds [5 x i8], [5 x i8]* %124, i64 0, i64 0
  %126 = call i8* @strcpy(i8* %121, i8* %125) #6
  %127 = load i32, i32* %12, align 4
  %128 = sext i32 %127 to i64
  %129 = getelementptr inbounds [500 x [5 x i8]], [500 x [5 x i8]]* %3, i64 0, i64 %128
  %130 = getelementptr inbounds [5 x i8], [5 x i8]* %129, i64 0, i64 0
  %131 = load i32, i32* %12, align 4
  %132 = add nsw i32 %131, 1
  %133 = sext i32 %132 to i64
  %134 = getelementptr inbounds [500 x [5 x i8]], [500 x [5 x i8]]* %3, i64 0, i64 %133
  %135 = getelementptr inbounds [5 x i8], [5 x i8]* %134, i64 0, i64 0
  %136 = call i8* @strcpy(i8* %130, i8* %135) #6
  %137 = load i32, i32* %12, align 4
  %138 = add nsw i32 %137, 1
  %139 = sext i32 %138 to i64
  %140 = getelementptr inbounds [500 x [5 x i8]], [500 x [5 x i8]]* %3, i64 0, i64 %139
  %141 = getelementptr inbounds [5 x i8], [5 x i8]* %140, i64 0, i64 0
  %142 = getelementptr inbounds [5 x i8], [5 x i8]* %4, i64 0, i64 0
  %143 = call i8* @strcpy(i8* %141, i8* %142) #6
  %144 = load i32, i32* %12, align 4
  %145 = sext i32 %144 to i64
  %146 = getelementptr inbounds [500 x i32], [500 x i32]* %17, i64 0, i64 %145
  %147 = load i32, i32* %146, align 4
  store i32 %147, i32* %14, align 4
  %148 = load i32, i32* %12, align 4
  %149 = add nsw i32 %148, 1
  %150 = sext i32 %149 to i64
  %151 = getelementptr inbounds [500 x i32], [500 x i32]* %17, i64 0, i64 %150
  %152 = load i32, i32* %151, align 4
  %153 = load i32, i32* %12, align 4
  %154 = sext i32 %153 to i64
  %155 = getelementptr inbounds [500 x i32], [500 x i32]* %17, i64 0, i64 %154
  store i32 %152, i32* %155, align 4
  %156 = load i32, i32* %14, align 4
  %157 = load i32, i32* %12, align 4
  %158 = add nsw i32 %157, 1
  %159 = sext i32 %158 to i64
  %160 = getelementptr inbounds [500 x i32], [500 x i32]* %17, i64 0, i64 %159
  store i32 %156, i32* %160, align 4
  br label %161

161:                                              ; preds = %120, %109
  br label %162

162:                                              ; preds = %161
  %163 = load i32, i32* %12, align 4
  %164 = add nsw i32 %163, 1
  store i32 %164, i32* %12, align 4
  br label %103

165:                                              ; preds = %103
  br label %166

166:                                              ; preds = %165
  %167 = load i32, i32* %13, align 4
  %168 = add nsw i32 %167, 1
  store i32 %168, i32* %13, align 4
  br label %98

169:                                              ; preds = %98
  %170 = load i32, i32* %7, align 4
  %171 = sext i32 %170 to i64
  %172 = getelementptr inbounds [500 x i32], [500 x i32]* %17, i64 0, i64 %171
  %173 = load i32, i32* %172, align 4
  store i32 %173, i32* %16, align 4
  %174 = load i32, i32* %16, align 4
  %175 = icmp sgt i32 %174, 1
  br i1 %175, label %176, label %223

176:                                              ; preds = %169
  %177 = load i32, i32* %7, align 4
  store i32 %177, i32* %5, align 4
  br label %178

178:                                              ; preds = %187, %176
  %179 = load i32, i32* %5, align 4
  %180 = sext i32 %179 to i64
  %181 = getelementptr inbounds [500 x i32], [500 x i32]* %17, i64 0, i64 %180
  %182 = load i32, i32* %181, align 4
  %183 = load i32, i32* %16, align 4
  %184 = icmp slt i32 %182, %183
  br i1 %184, label %185, label %186

185:                                              ; preds = %178
  br label %190

186:                                              ; preds = %178
  br label %187

187:                                              ; preds = %186
  %188 = load i32, i32* %5, align 4
  %189 = add nsw i32 %188, -1
  store i32 %189, i32* %5, align 4
  br label %178

190:                                              ; preds = %185
  %191 = load i32, i32* %16, align 4
  %192 = call i32 (i8*, ...) @printf(i8* getelementptr inbounds ([4 x i8], [4 x i8]* @.str.1, i64 0, i64 0), i32 %191)
  %193 = load i32, i32* %5, align 4
  %194 = add nsw i32 %193, 1
  store i32 %194, i32* %6, align 4
  br label %195

195:                                              ; preds = %219, %190
  %196 = load i32, i32* %6, align 4
  %197 = load i32, i32* %7, align 4
  %198 = icmp sle i32 %196, %197
  br i1 %198, label %199, label %222

199:                                              ; preds = %195
  store i32 0, i32* %15, align 4
  br label %200

200:                                              ; preds = %214, %199
  %201 = load i32, i32* %15, align 4
  %202 = load i32, i32* %10, align 4
  %203 = icmp slt i32 %201, %202
  br i1 %203, label %204, label %217

204:                                              ; preds = %200
  %205 = load i32, i32* %6, align 4
  %206 = sext i32 %205 to i64
  %207 = getelementptr inbounds [500 x [5 x i8]], [500 x [5 x i8]]* %3, i64 0, i64 %206
  %208 = load i32, i32* %15, align 4
  %209 = sext i32 %208 to i64
  %210 = getelementptr inbounds [5 x i8], [5 x i8]* %207, i64 0, i64 %209
  %211 = load i8, i8* %210, align 1
  %212 = sext i8 %211 to i32
  %213 = call i32 (i8*, ...) @printf(i8* getelementptr inbounds ([3 x i8], [3 x i8]* @.str.2, i64 0, i64 0), i32 %212)
  br label %214

214:                                              ; preds = %204
  %215 = load i32, i32* %15, align 4
  %216 = add nsw i32 %215, 1
  store i32 %216, i32* %15, align 4
  br label %200

217:                                              ; preds = %200
  %218 = call i32 (i8*, ...) @printf(i8* getelementptr inbounds ([2 x i8], [2 x i8]* @.str.3, i64 0, i64 0))
  br label %219

219:                                              ; preds = %217
  %220 = load i32, i32* %6, align 4
  %221 = add nsw i32 %220, 1
  store i32 %221, i32* %6, align 4
  br label %195

222:                                              ; preds = %195
  br label %225

223:                                              ; preds = %169
  %224 = call i32 (i8*, ...) @printf(i8* getelementptr inbounds ([4 x i8], [4 x i8]* @.str.4, i64 0, i64 0))
  br label %225

225:                                              ; preds = %223, %222
  %226 = load i32, i32* %1, align 4
  ret i32 %226
}

; Function Attrs: argmemonly nounwind willreturn
declare void @llvm.memset.p0i8.i64(i8* nocapture writeonly, i8, i64, i1 immarg) #1

declare dso_local i32 @__isoc99_scanf(i8*, ...) #2

declare dso_local i32 @gets(...) #2

; Function Attrs: nounwind readonly
declare dso_local i64 @strlen(i8*) #3

; Function Attrs: nounwind readonly
declare dso_local i32 @strcmp(i8*, i8*) #3

; Function Attrs: nounwind
declare dso_local i8* @strcpy(i8*, i8*) #4

declare dso_local i32 @printf(i8*, ...) #2


!llvm.module.flags = !{!0}
!llvm.ident = !{!1}

!0 = !{i32 1, !"wchar_size", i32 4}
!1 = !{!"clang version 10.0.0-4ubuntu1 "}
